******************************************************************************
                  TI ARM Linker PC v16.9.6                     
******************************************************************************
>> Linked Thu Mar 15 04:10:10 2018

OUTPUT FILE NAME:   <SSL_REST_API_AWS_w.out>
ENTRY POINT SYMBOL: "_c_int00"  address: 2000b465


MEMORY CONFIGURATION

         name            origin    length      used     unused   attr    fill
----------------------  --------  ---------  --------  --------  ----  --------
  SRAM_CODE             20004000   00013000  000086e6  0000a91a  RW X
  SRAM_DATA             20017000   00020000  000099b1  0001664f  RW X


SEGMENT ALLOCATION MAP

run origin  load origin   length   init length attrs members
----------  ----------- ---------- ----------- ----- -------
20004000    20004000    000086f0   000086f0    r-x
  20004000    20004000    00000400   00000400    r-- .intvecs
  20004400    20004400    000077aa   000077aa    r-x .text
  2000bbb0    2000bbb0    00000a8c   00000a8c    r-- .const
  2000c640    2000c640    000000b0   000000b0    r-- .cinit
20017000    20017000    000089b1   00000000    rw-
  20017000    20017000    00008000   00000000    rw- .sysmem
  2001f000    2001f000    00000738   00000000    rw- .data
  2001f738    2001f738    00000279   00000000    rw- .bss
20036000    20036000    00001000   00000000    rw-
  20036000    20036000    00001000   00000000    rw- .stack


SECTION ALLOCATION MAP

 output                                  attributes/
section   page    origin      length       input sections
--------  ----  ----------  ----------   ----------------
.intvecs   0    20004000    00000400     
                  20004000    00000400     startup_ccs.obj (.intvecs)

.init_array 
*          0    20004000    00000000     UNINITIALIZED

.text      0    20004400    000077aa     
                  20004400    00001122     rtsv7M4_T_le_eabi.lib : _printfi.obj (.text)
                  20005522    00000002     driverlib.a : interrupt.obj (.text:IntDefaultHandler)
                  20005524    00000dc0     main.obj (.text)
                  200062e4    00000a80     Adafruit_GFX.obj (.text)
                  20006d64    00000a30     test.obj (.text)
                  20007794    00000704     rtsv7M4_T_le_eabi.lib : k_rem_pio2.obj (.text)
                  20007e98    000005c0                           : s_cos.obj (.text)
                  20008458    000005c0                           : s_sin.obj (.text)
                  20008a18    00000476     Adafruit_OLED.obj (.text)
                  20008e8e    00000002     rtsv7M4_T_le_eabi.lib : mpu_init.obj (.text)
                  20008e90    000003d0                           : memory.obj (.text)
                  20009260    00000398     gpio_if.obj (.text)
                  200095f8    00000280     uart_if.obj (.text)
                  20009878    000001f4     rtsv7M4_T_le_eabi.lib : ull_div_t2.obj (.text)
                  20009a6c    000001b6                           : fd_add_t2.obj (.text)
                  20009c22    00000002                           : startup.obj (.text)
                  20009c24    00000198     timer_if.obj (.text)
                  20009dbc    00000178     driverlib.a : prcm.obj (.text:PRCMCC3200MCUInit)
                  20009f34    00000168     rtsv7M4_T_le_eabi.lib : k_sin.obj (.text)
                  2000a09c    00000160                           : k_cos.obj (.text)
                  2000a1fc    00000144     pin_mux_config.obj (.text)
                  2000a340    00000136     rtsv7M4_T_le_eabi.lib : fd_div_t2.obj (.text)
                  2000a476    000000fc                           : fd_mul_t2.obj (.text)
                  2000a572    000000fa                           : fs_add_t2.obj (.text)
                  2000a66c    000000f4                           : s_floor.obj (.text)
                  2000a760    000000d0                           : s_scalbn.obj (.text)
                  2000a830    000000a8     driverlib.a : interrupt.obj (.text:IntDisable)
                  2000a8d8    000000a8                 : interrupt.obj (.text:IntEnable)
                  2000a980    000000a0                 : spi.obj (.text:SPIConfigSetExpClk)
                  2000aa20    0000009c     rtsv7M4_T_le_eabi.lib : memcpy_t2.obj (.text)
                  2000aabc    00000094     driverlib.a : prcm.obj (.text:PRCMPeripheralClockGet)
                  2000ab50    00000088                 : pin.obj (.text:PinConfigSet)
                  2000abd8    00000088     rtsv7M4_T_le_eabi.lib : vsnprintf.obj (.text)
                  2000ac60    00000086                           : fd_cmp_t2.obj (.text:__aeabi_cdcmple)
                  2000ace6    00000086                           : fd_cmp_t2.obj (.text:__aeabi_cdrcmple)
                  2000ad6c    00000082     driverlib.a : gpio.obj (.text:GPIOIntTypeSet)
                  2000adee    0000007a     rtsv7M4_T_le_eabi.lib : fs_mul_t2.obj (.text)
                  2000ae68    0000007a                           : memset_t2.obj (.text)
                  2000aee2    00000076     driverlib.a : uart.obj (.text:UARTConfigSetExpClk)
                  2000af58    00000070                 : timer.obj (.text:TimerIntRegister)
                  2000afc8    00000070     rtsv7M4_T_le_eabi.lib : autoinit.obj (.text)
                  2000b038    00000068     driverlib.a : timer.obj (.text:TimerIntUnregister)
                  2000b0a0    00000068     rtsv7M4_T_le_eabi.lib : copy_decompress_lzss.obj (.text:decompress:lzss)
                  2000b108    0000005c                           : s_frexp.obj (.text)
                  2000b164    00000058     driverlib.a : prcm.obj (.text:PRCMPeripheralReset)
                  2000b1bc    00000054                 : interrupt.obj (.text:IntPrioritySet)
                  2000b210    00000054     rtsv7M4_T_le_eabi.lib : exit.obj (.text)
                  2000b264    00000054                           : ltoa.obj (.text)
                  2000b2b8    0000004c                           : atoi.obj (.text)
                  2000b304    0000004c                           : cpy_tbl.obj (.text)
                  2000b350    00000048     driverlib.a : gpio.obj (.text:GPIOGetIntNumber)
                  2000b398    00000048     rtsv7M4_T_le_eabi.lib : fd_toi_t2.obj (.text)
                  2000b3e0    00000044     driverlib.a : timer.obj (.text:TimerConfigure)
                  2000b424    00000040                 : pin.obj (.text:PinModeSet)
                  2000b464    00000040     rtsv7M4_T_le_eabi.lib : boot.obj (.text)
                  2000b4a4    0000003c     driverlib.a : prcm.obj (.text:PRCMPeripheralClkEnable)
                  2000b4e0    00000038     rtsv7M4_T_le_eabi.lib : fs_tod_t2.obj (.text)
                  2000b518    00000038                           : fs_toi_t2.obj (.text)
                  2000b550    00000038                           : i_tofs_t2.obj (.text)
                  2000b588    00000036     driverlib.a : gpio.obj (.text:GPIODirModeSet)
                  2000b5be    00000034     rtsv7M4_T_le_eabi.lib : fs_tou_t2.obj (.text)
                  2000b5f2    00000030     driverlib.a : pin.obj (.text:PinTypeGPIO)
                  2000b622    00000002     --HOLE-- [fill = 0]
                  2000b624    00000030                 : uart.obj (.text:UARTDisable)
                  2000b654    0000002e     rtsv7M4_T_le_eabi.lib : i_tofd_t2.obj (.text)
                  2000b682    00000002     --HOLE-- [fill = 0]
                  2000b684    0000002c     driverlib.a : prcm.obj (.text:PRCMSysResetCauseGet)
                  2000b6b0    0000002a                 : timer.obj (.text:TimerLoadSet)
                  2000b6da    0000002a                 : timer.obj (.text:TimerPrescaleSet)
                  2000b704    00000028                 : prcm.obj (.text:PRCMPeripheralClkDisable)
                  2000b72c    00000024                 : interrupt.obj (.text:IntUnregister)
                  2000b750    00000024                 : uart.obj (.text:UARTEnable)
                  2000b774    00000024     rtsv7M4_T_le_eabi.lib : memmov.obj (.text)
                  2000b798    00000022     driverlib.a : gpio.obj (.text:GPIOIntStatus)
                  2000b7ba    00000022                 : spi.obj (.text:SPIReset)
                  2000b7dc    00000022                 : timer.obj (.text:TimerValueSet)
                  2000b7fe    00000020                 : gpio.obj (.text:GPIOPinWrite)
                  2000b81e    00000002     --HOLE-- [fill = 0]
                  2000b820    00000020                 : interrupt.obj (.text:IntRegister)
                  2000b840    00000020                 : spi.obj (.text:SPIDataGet)
                  2000b860    0000001e                 : gpio.obj (.text:GPIOIntRegister)
                  2000b87e    0000001e                 : spi.obj (.text:SPIDataPut)
                  2000b89c    0000001e                 : timer.obj (.text:TimerDisable)
                  2000b8ba    0000001e                 : timer.obj (.text:TimerEnable)
                  2000b8d8    0000001e                 : timer.obj (.text:TimerIntStatus)
                  2000b8f6    0000001e                 : uart.obj (.text:UARTCharPut)
                  2000b914    0000001c                 : timer.obj (.text:TimerValueGet)
                  2000b930    0000001c                 : uart.obj (.text:UARTCharGetNonBlocking)
                  2000b94c    0000001c     rtsv7M4_T_le_eabi.lib : memccpy.obj (.text)
                  2000b968    0000001a     driverlib.a : gpio.obj (.text:GPIOIntDisable)
                  2000b982    0000001a                 : gpio.obj (.text:GPIOIntEnable)
                  2000b99c    0000001a                 : pin.obj (.text:PinTypeSPI)
                  2000b9b6    0000001a                 : pin.obj (.text:PinTypeUART)
                  2000b9d0    0000001a                 : spi.obj (.text:SPIFIFOEnable)
                  2000b9ea    00000018                 : gpio.obj (.text:GPIOPinRead)
                  2000ba02    00000018                 : spi.obj (.text:SPICSDisable)
                  2000ba1a    00000018                 : spi.obj (.text:SPICSEnable)
                  2000ba32    00000018                 : spi.obj (.text:SPIEnable)
                  2000ba4a    00000018                 : timer.obj (.text:TimerIntDisable)
                  2000ba62    00000018                 : timer.obj (.text:TimerIntEnable)
                  2000ba7a    00000018                 : uart.obj (.text:UARTCharsAvail)
                  2000ba92    00000002     --HOLE-- [fill = 0]
                  2000ba94    00000018     rtsv7M4_T_le_eabi.lib : args_main.obj (.text)
                  2000baac    00000016     driverlib.a : prcm.obj (.text:PRCMHIBRegRead)
                  2000bac2    00000016                 : prcm.obj (.text:PRCMHIBRegWrite)
                  2000bad8    00000016     rtsv7M4_T_le_eabi.lib : strchr.obj (.text)
                  2000baee    00000014     driverlib.a : cpu.obj (.text:CPUcpsie)
                  2000bb02    00000014                 : gpio.obj (.text:GPIOIntClear)
                  2000bb16    00000002     --HOLE-- [fill = 0]
                  2000bb18    00000014                 : interrupt.obj (.text:IntVTableBaseSet)
                  2000bb2c    00000014     rtsv7M4_T_le_eabi.lib : _lock.obj (.text)
                  2000bb40    00000014                           : strlen.obj (.text)
                  2000bb54    00000012     driverlib.a : timer.obj (.text:TimerIntClear)
                  2000bb66    0000000e     rtsv7M4_T_le_eabi.lib : copy_decompress_none.obj (.text:decompress:none)
                  2000bb74    0000000e     startup_ccs.obj (.text)
                  2000bb82    0000000c     rtsv7M4_T_le_eabi.lib : copy_zero_init.obj (.text:decompress:ZI)
                  2000bb8e    0000000a     driverlib.a : interrupt.obj (.text:IntMasterEnable)
                  2000bb98    00000008     rtsv7M4_T_le_eabi.lib : s_copysign.obj (.text)
                  2000bba0    00000006     driverlib.a : utils.obj (.text:UtilsDelay)
                  2000bba6    00000004     rtsv7M4_T_le_eabi.lib : pre_init.obj (.text)

.const     0    2000bbb0    00000a8c     
                  2000bbb0    000004fb     Adafruit_GFX.obj (.const:.string:font)
                  2000c0ab    00000005     --HOLE-- [fill = 0]
                  2000c0b0    00000158     rtsv7M4_T_le_eabi.lib : k_rem_pio2.obj (.const:$O1$$)
                  2000c208    00000101                           : ctype.obj (.const:.string:_ctypes_)
                  2000c309    00000003     --HOLE-- [fill = 0]
                  2000c30c    00000100     driverlib.a : pin.obj (.const:g_ulPinToPadMap)
                  2000c40c    000000d4                 : interrupt.obj (.const:g_pulRegs)
                  2000c4e0    000000a8                 : prcm.obj (.const:PRCM_PeriphRegsList)
                  2000c588    00000080                 : interrupt.obj (.const)
                  2000c608    0000002c     main.obj (.const:.string)
                  2000c634    00000008     main.obj (.const)

.cinit     0    2000c640    000000b0     
                  2000c640    00000085     (.cinit..data.load) [load image, compression = lzss]
                  2000c6c5    00000003     --HOLE-- [fill = 0]
                  2000c6c8    0000000c     (__TI_handler_table)
                  2000c6d4    00000004     --HOLE-- [fill = 0]
                  2000c6d8    00000008     (.cinit..bss.load) [load image, compression = zero_init]
                  2000c6e0    00000010     (__TI_cinit_table)

.sysmem    0    20017000    00008000     UNINITIALIZED
                  20017000    00000008     rtsv7M4_T_le_eabi.lib : memory.obj (.sysmem)
                  20017008    00007ff8     --HOLE--

.data      0    2001f000    00000738     UNINITIALIZED
                  2001f000    00000690     main.obj (.data:buttons)
                  2001f690    00000024     main.obj (.data:state)
                  2001f6b4    00000015     Adafruit_GFX.obj (.data)
                  2001f6c9    00000003     --HOLE--
                  2001f6cc    00000014     main.obj (.data)
                  2001f6e0    00000014     gpio_if.obj (.data:ulReg)
                  2001f6f4    0000000c     rtsv7M4_T_le_eabi.lib : exit.obj (.data:$O1$$)
                  2001f700    0000000c                           : memory.obj (.data:$O1$$)
                  2001f70c    0000000c     gpio_if.obj (.data)
                  2001f718    00000008     rtsv7M4_T_le_eabi.lib : _lock.obj (.data:$O1$$)
                  2001f720    00000008     main.obj (.data:gpioin)
                  2001f728    00000008     main.obj (.data:player1)
                  2001f730    00000004     rtsv7M4_T_le_eabi.lib : errno.obj (.data)
                  2001f734    00000004                           : stkdepth_vars.obj (.data)

.bss       0    2001f738    00000279     UNINITIALIZED
                  2001f738    0000008c     (.common:bitSequence)
                  2001f7c4    0000008c     (.common:timeInterval)
                  2001f850    0000008c     (.common:timeOfInterrupt)
                  2001f8dc    00000040     (.common:buffer)
                  2001f91c    00000040     (.common:receiverBuffer)
                  2001f95c    00000024     (.common:g_ucConnectionSSID)
                  2001f980    00000008     (.common:g_ucConnectionBSSID)
                  2001f988    00000004     uart_if.obj (.bss)
                  2001f98c    00000004     (.common:_readTime)
                  2001f990    00000004     (.common:_time)
                  2001f994    00000004     (.common:deleteFlag)
                  2001f998    00000004     (.common:interruptCounter)
                  2001f99c    00000004     (.common:pulseCounter)
                  2001f9a0    00000004     (.common:readIndex)
                  2001f9a4    00000004     (.common:receiverLineNumber)
                  2001f9a8    00000004     (.common:time)
                  2001f9ac    00000001     (.common:currRead)
                  2001f9ad    00000001     (.common:g_ucLED1Pin)
                  2001f9ae    00000001     (.common:g_ucLED2Pin)
                  2001f9af    00000001     (.common:g_ucLED3Pin)
                  2001f9b0    00000001     (.common:lastRead)

.stack     0    20036000    00001000     UNINITIALIZED
                  20036000    00001000     --HOLE--

MODULE SUMMARY

       Module                     code    ro data   rw data
       ------                     ----    -------   -------
    .\
       main.obj                   3520    52        2378   
       Adafruit_GFX.obj           2688    1275      21     
       test.obj                   2608    0         0      
       Adafruit_OLED.obj          1142    0         0      
       startup_ccs.obj            14      1024      0      
       gpio_if.obj                920     0         35     
       uart_if.obj                640     0         4      
       timer_if.obj               408     0         0      
       pin_mux_config.obj         324     0         0      
    +--+--------------------------+-------+---------+---------+
       Total:                     12264   2351      2438   
                                                           
    C:/ti/CC3200SDK_1.3.0/cc3200-sdk/driverlib/ccs/Release/driverlib.a
       prcm.obj                   800     168       0      
       interrupt.obj              520     340       0      
       timer.obj                  586     0         0      
       pin.obj                    300     256       0      
       gpio.obj                   448     0         0      
       spi.obj                    354     0         0      
       uart.obj                   284     0         0      
       cpu.obj                    20      0         0      
       utils.obj                  6       0         0      
    +--+--------------------------+-------+---------+---------+
       Total:                     3318    764       0      
                                                           
    C:\ti\ccsv7\tools\compiler\ti-cgt-arm_16.9.6.LTS\lib\rtsv7M4_T_le_eabi.lib
       _printfi.obj               4386    0         0      
       k_rem_pio2.obj             1796    344       0      
       s_cos.obj                  1472    0         0      
       s_sin.obj                  1472    0         0      
       memory.obj                 976     0         12     
       ull_div_t2.obj             500     0         0      
       fd_add_t2.obj              438     0         0      
       k_sin.obj                  360     0         0      
       k_cos.obj                  352     0         0      
       fd_div_t2.obj              310     0         0      
       fd_cmp_t2.obj              268     0         0      
       ctype.obj                  0       257       0      
       fd_mul_t2.obj              252     0         0      
       fs_add_t2.obj              250     0         0      
       s_floor.obj                244     0         0      
       s_scalbn.obj               208     0         0      
       memcpy_t2.obj              156     0         0      
       vsnprintf.obj              136     0         0      
       fs_mul_t2.obj              122     0         0      
       memset_t2.obj              122     0         0      
       autoinit.obj               112     0         0      
       copy_decompress_lzss.obj   104     0         0      
       exit.obj                   84      0         12     
       s_frexp.obj                92      0         0      
       ltoa.obj                   84      0         0      
       atoi.obj                   76      0         0      
       cpy_tbl.obj                76      0         0      
       fd_toi_t2.obj              72      0         0      
       boot.obj                   64      0         0      
       fs_tod_t2.obj              56      0         0      
       fs_toi_t2.obj              56      0         0      
       i_tofs_t2.obj              56      0         0      
       fs_tou_t2.obj              52      0         0      
       i_tofd_t2.obj              46      0         0      
       memmov.obj                 36      0         0      
       _lock.obj                  20      0         8      
       memccpy.obj                28      0         0      
       args_main.obj              24      0         0      
       strchr.obj                 22      0         0      
       strlen.obj                 20      0         0      
       copy_decompress_none.obj   14      0         0      
       copy_zero_init.obj         12      0         0      
       s_copysign.obj             8       0         0      
       errno.obj                  0       0         4      
       pre_init.obj               4       0         0      
       stkdepth_vars.obj          0       0         4      
       mpu_init.obj               2       0         0      
       startup.obj                2       0         0      
    +--+--------------------------+-------+---------+---------+
       Total:                     15042   601       40     
                                                           
       Heap:                      0       0         32768  
       Stack:                     0       0         4096   
       Linker Generated:          0       169       0      
    +--+--------------------------+-------+---------+---------+
       Grand Total:               30624   3885      39342  


LINKER GENERATED COPY TABLES

__TI_cinit_table @ 2000c6e0 records: 2, size/record: 8, table size: 16
	.data: load addr=2000c640, load size=00000085 bytes, run addr=2001f000, run size=00000738 bytes, compression=lzss
	.bss: load addr=2000c6d8, load size=00000008 bytes, run addr=2001f738, run size=00000279 bytes, compression=zero_init


LINKER GENERATED HANDLER TABLE

__TI_handler_table @ 2000c6c8 records: 3, size/record: 4, table size: 12
	index: 0, handler: __TI_decompress_lzss
	index: 1, handler: __TI_decompress_none
	index: 2, handler: __TI_zero_init


GLOBAL SYMBOLS: SORTED ALPHABETICALLY BY Name 

address   name                           
-------   ----                           
20008a79  Adafruit_Init                  
2000b211  C$$EXIT                        
2000baef  CPUcpsie                       
20009639  ClearTerm                      
20008bef  Color565                       
20005df1  Draw                           
20006d65  DrawBall                       
20009643  Error                          
2000b589  GPIODirModeSet                 
2000bb03  GPIOIntClear                   
2000b969  GPIOIntDisable                 
2000b983  GPIOIntEnable                  
2000b861  GPIOIntRegister                
2000b799  GPIOIntStatus                  
2000ad6d  GPIOIntTypeSet                 
2000b9eb  GPIOPinRead                    
2000b7ff  GPIOPinWrite                   
20009521  GPIO_IF_ConfigureNIntEnable    
200095ad  GPIO_IF_Get                    
200094db  GPIO_IF_GetPortNPin            
2000929d  GPIO_IF_LedConfigure           
2000938f  GPIO_IF_LedOff                 
200092db  GPIO_IF_LedOn                  
20009443  GPIO_IF_LedStatus              
200094ad  GPIO_IF_LedToggle              
20009569  GPIO_IF_Set                    
2000602d  GameLogic                      
2000967b  GetCmd                         
20005a8f  GetMessage                     
200095f9  InitTerm                       
2000a831  IntDisable                     
2000a8d9  IntEnable                      
2000bb8f  IntMasterEnable                
2000b1bd  IntPrioritySet                 
2000b821  IntRegister                    
2000b72d  IntUnregister                  
2000bb19  IntVTableBaseSet               
20009617  Message                        
20006c8f  Outstr                         
20009dbd  PRCMCC3200MCUInit              
2000baad  PRCMHIBRegRead                 
2000bac3  PRCMHIBRegWrite                
2000b705  PRCMPeripheralClkDisable       
2000b4a5  PRCMPeripheralClkEnable        
2000aabd  PRCMPeripheralClockGet         
2000b165  PRCMPeripheralReset            
2000b685  PRCMSysResetCauseGet           
2000ab51  PinConfigSet                   
2000b425  PinModeSet                     
2000a1fd  PinMuxConfig                   
2000b5f3  PinTypeGPIO                    
2000b99d  PinTypeSPI                     
2000b9b7  PinTypeUART                    
200097b9  Report                         
2000bb75  ResetISR                       
UNDEFED   SHT$$INIT_ARRAY$$Base          
UNDEFED   SHT$$INIT_ARRAY$$Limit         
2000ba03  SPICSDisable                   
2000ba1b  SPICSEnable                    
2000a981  SPIConfigSetExpClk             
2000b841  SPIDataGet                     
2000b87f  SPIDataPut                     
2000ba33  SPIEnable                      
2000b9d1  SPIFIFOEnable                  
2000b7bb  SPIReset                       
20005775  SPI_Init                       
200059d5  SimpleLinkGeneralEventHandler  
200059b9  SimpleLinkHttpServerCallback   
20005911  SimpleLinkNetAppEventHandler   
200059f9  SimpleLinkSockEventHandler     
200057f1  SimpleLinkWlanEventHandler     
2000b3e1  TimerConfigure                 
2000b89d  TimerDisable                   
2000b8bb  TimerEnable                    
2000bb55  TimerIntClear                  
2000ba4b  TimerIntDisable                
2000ba63  TimerIntEnable                 
2000af59  TimerIntRegister               
2000b8d9  TimerIntStatus                 
2000b039  TimerIntUnregister             
2000b6b1  TimerLoadSet                   
2000b6db  TimerPrescaleSet               
20005525  TimerRefIntHandler             
2000b915  TimerValueGet                  
2000b7dd  TimerValueSet                  
20009d6b  Timer_IF_DeInit                
20009d9d  Timer_IF_GetCount              
20009ca5  Timer_IF_Init                  
20009cd7  Timer_IF_IntSetup              
20009d23  Timer_IF_InterruptClear        
20009d85  Timer_IF_ReLoad                
20009d3b  Timer_IF_Start                 
20009d5b  Timer_IF_Stop                  
20009721  TrimSpace                      
2000b931  UARTCharGetNonBlocking         
2000b8f7  UARTCharPut                    
2000ba7b  UARTCharsAvail                 
2000aee3  UARTConfigSetExpClk            
2000b625  UARTDisable                    
2000b751  UARTEnable                     
2000bba1  UtilsDelay                     
20037000  __STACK_END                    
00001000  __STACK_SIZE                   
00008000  __SYSMEM_SIZE                  
2000c6e0  __TI_CINIT_Base                
2000c6f0  __TI_CINIT_Limit               
2000c6c8  __TI_Handler_Table_Base        
2000c6d4  __TI_Handler_Table_Limit       
2000afc9  __TI_auto_init                 
2001f6f4  __TI_cleanup_ptr               
2000b0a1  __TI_decompress_lzss           
2000bb67  __TI_decompress_none           
2001f6f8  __TI_dtors_ptr                 
2001f6fc  __TI_enable_exit_profile_output
ffffffff  __TI_pprof_out_hndl            
20004c39  __TI_printfi                   
ffffffff  __TI_prof_data_size            
ffffffff  __TI_prof_data_start           
2000c640  __TI_static_base__             
2000bb83  __TI_zero_init                 
2000ac61  __aeabi_cdcmpeq                
2000ac61  __aeabi_cdcmple                
2000ace7  __aeabi_cdrcmple               
2000b399  __aeabi_d2iz                   
20009a77  __aeabi_dadd                   
2000a341  __aeabi_ddiv                   
2000a477  __aeabi_dmul                   
20009a6d  __aeabi_dsub                   
2000b4e1  __aeabi_f2d                    
2000b519  __aeabi_f2iz                   
2000b5bf  __aeabi_f2uiz                  
2000a577  __aeabi_fadd                   
2000adef  __aeabi_fmul                   
2000a573  __aeabi_fsub                   
2000b655  __aeabi_i2d                    
2000b551  __aeabi_i2f                    
2000ae69  __aeabi_memclr                 
2000ae69  __aeabi_memclr4                
2000ae69  __aeabi_memclr8                
2000aa21  __aeabi_memcpy                 
2000aa21  __aeabi_memcpy4                
2000aa21  __aeabi_memcpy8                
2000ae6b  __aeabi_memset                 
2000ae6b  __aeabi_memset4                
2000ae6b  __aeabi_memset8                
20009879  __aeabi_uldivmod               
ffffffff  __binit__                      
ffffffff  __c_args__                     
2000a09d  __kernel_cos                   
20007795  __kernel_rem_pio2              
20009f35  __kernel_sin                   
20008e8f  __mpu_init                     
20036000  __stack                        
2000ba95  _args_main                     
2000b465  _c_int00                       
2000c208  _ctypes_                       
2001f718  _lock                          
2000bb3b  _nop                           
2001f98c  _readTime                      
2000bb33  _register_lock                 
2000bb2d  _register_unlock               
20017000  _sys_memory                    
20009c23  _system_post_cinit             
2000bba7  _system_pre_init               
2001f990  _time                          
2001f71c  _unlock                        
2000b215  abort                          
2000b2b9  atoi                           
ffffffff  binit                          
2001f738  bitSequence                    
2001f8dc  buffer                         
2001f000  buttons                        
20009231  calloc                         
20005587  compareBitPatterns             
2000554b  compareTwoSequence             
2000b305  copy_in                        
2000bb99  copysign                       
2000bb99  copysignl                      
20007e99  cos                            
20007e99  cosl                           
2001f9ac  currRead                       
2001f6b4  cursor_x                       
2001f6b8  cursor_y                       
2000573d  decode                         
20006d89  delay                          
2001f994  deleteFlag                     
20005a73  displayBanner                  
20006dbd  drawAllFont                    
20006b43  drawChar                       
200062e5  drawCircle                     
20006419  drawCircleHelper               
20008d99  drawFastHLine                  
20008cfd  drawFastVLine                  
20006f3b  drawHorizontalLines            
2000665f  drawLine                       
20008e35  drawPixel                      
2000674b  drawRect                       
20006799  drawRoundRect                  
20006901  drawTriangle                   
20006ff5  drawVerticalLines              
2001f730  errno                          
2000b21d  exit                           
20006537  fillCircle                     
20006571  fillCircleHelper               
20008c47  fillRect                       
20006887  fillRoundRect                  
20008c31  fillScreen                     
20006943  fillTriangle                   
2000a66d  floor                          
2000a66d  floorl                         
20008f7b  free                           
2000b109  frexp                          
2000b109  frexpl                         
2001f6d8  g_Host                         
20004000  g_pfnVectors                   
2001f980  g_ucConnectionBSSID            
2001f95c  g_ucConnectionSSID             
2001f9ad  g_ucLED1Pin                    
2001f9ae  g_ucLED2Pin                    
2001f9af  g_ucLED3Pin                    
2001f70c  g_uiLED1Port                   
2001f710  g_uiLED2Port                   
2001f714  g_uiLED3Port                   
2001f6d4  g_ulGatewayIP                  
2001f6d0  g_ulPingPacketsRecv            
2001f6cc  g_ulStatus                     
20008bab  goTo                           
20006d43  height                         
20005667  initializeArr                  
200056a3  initializeVariables            
2001f998  interruptCounter               
20008e73  invert                         
2001f6dc  isPlayerOne                    
2001f9b0  lastRead                       
200075f5  lcdTestPattern                 
200076c5  lcdTestPattern2                
2000a761  ldexp                          
2000a761  ldexpl                         
2000b265  ltoa                           
200061df  main                           
2001f734  main_func_sp                   
20008f11  malloc                         
20009145  memalign                       
2000b94d  memccpy                        
2000aa21  memcpy                         
2000b775  memmove                        
2000ae71  memset                         
20008e91  minit                          
2000c634  pedalSize                      
2000c638  pedalWidth                     
200056e9  printBuffer                    
20005a5d  printErrConvenience            
20006e3f  printHelloWorld                
2001f99c  pulseCounter                   
2001f9a0  readIndex                      
2000903b  realloc                        
2001f91c  receiverBuffer                 
2001f9a4  receiverLineNumber             
2000a761  scalbn                         
2000a761  scalbnl                        
20006cdb  setCursor                      
20006d13  setTextColor                   
20006cf3  setTextSize                    
20006d2b  setTextWrap                    
20008459  sin                            
20008459  sinl                           
2000bad9  strchr                         
2000bb41  strlen                         
200072b9  testdrawcircles                
20007129  testdrawrects                  
200070b7  testfastlines                  
20007247  testfillcircles                
20007189  testfillrects                  
20007427  testlines                      
200073b5  testroundrects                 
20007333  testtriangles                  
2001f6c4  textbgcolor                    
2001f6c0  textcolor                      
2001f6bc  textsize                       
2001f9a8  time                           
2001f7c4  timeInterval                   
2001f850  timeOfInterrupt                
20005635  timerInit                      
2000abd9  vsnprintf                      
20006d3f  width                          
2001f6c8  wrap                           
20008a19  writeCommand                   
20008a49  writeData                      


GLOBAL SYMBOLS: SORTED BY Symbol Address 

address   name                           
-------   ----                           
00001000  __STACK_SIZE                   
00008000  __SYSMEM_SIZE                  
20004000  g_pfnVectors                   
20004c39  __TI_printfi                   
20005525  TimerRefIntHandler             
2000554b  compareTwoSequence             
20005587  compareBitPatterns             
20005635  timerInit                      
20005667  initializeArr                  
200056a3  initializeVariables            
200056e9  printBuffer                    
2000573d  decode                         
20005775  SPI_Init                       
200057f1  SimpleLinkWlanEventHandler     
20005911  SimpleLinkNetAppEventHandler   
200059b9  SimpleLinkHttpServerCallback   
200059d5  SimpleLinkGeneralEventHandler  
200059f9  SimpleLinkSockEventHandler     
20005a5d  printErrConvenience            
20005a73  displayBanner                  
20005a8f  GetMessage                     
20005df1  Draw                           
2000602d  GameLogic                      
200061df  main                           
200062e5  drawCircle                     
20006419  drawCircleHelper               
20006537  fillCircle                     
20006571  fillCircleHelper               
2000665f  drawLine                       
2000674b  drawRect                       
20006799  drawRoundRect                  
20006887  fillRoundRect                  
20006901  drawTriangle                   
20006943  fillTriangle                   
20006b43  drawChar                       
20006c8f  Outstr                         
20006cdb  setCursor                      
20006cf3  setTextSize                    
20006d13  setTextColor                   
20006d2b  setTextWrap                    
20006d3f  width                          
20006d43  height                         
20006d65  DrawBall                       
20006d89  delay                          
20006dbd  drawAllFont                    
20006e3f  printHelloWorld                
20006f3b  drawHorizontalLines            
20006ff5  drawVerticalLines              
200070b7  testfastlines                  
20007129  testdrawrects                  
20007189  testfillrects                  
20007247  testfillcircles                
200072b9  testdrawcircles                
20007333  testtriangles                  
200073b5  testroundrects                 
20007427  testlines                      
200075f5  lcdTestPattern                 
200076c5  lcdTestPattern2                
20007795  __kernel_rem_pio2              
20007e99  cos                            
20007e99  cosl                           
20008459  sin                            
20008459  sinl                           
20008a19  writeCommand                   
20008a49  writeData                      
20008a79  Adafruit_Init                  
20008bab  goTo                           
20008bef  Color565                       
20008c31  fillScreen                     
20008c47  fillRect                       
20008cfd  drawFastVLine                  
20008d99  drawFastHLine                  
20008e35  drawPixel                      
20008e73  invert                         
20008e8f  __mpu_init                     
20008e91  minit                          
20008f11  malloc                         
20008f7b  free                           
2000903b  realloc                        
20009145  memalign                       
20009231  calloc                         
2000929d  GPIO_IF_LedConfigure           
200092db  GPIO_IF_LedOn                  
2000938f  GPIO_IF_LedOff                 
20009443  GPIO_IF_LedStatus              
200094ad  GPIO_IF_LedToggle              
200094db  GPIO_IF_GetPortNPin            
20009521  GPIO_IF_ConfigureNIntEnable    
20009569  GPIO_IF_Set                    
200095ad  GPIO_IF_Get                    
200095f9  InitTerm                       
20009617  Message                        
20009639  ClearTerm                      
20009643  Error                          
2000967b  GetCmd                         
20009721  TrimSpace                      
200097b9  Report                         
20009879  __aeabi_uldivmod               
20009a6d  __aeabi_dsub                   
20009a77  __aeabi_dadd                   
20009c23  _system_post_cinit             
20009ca5  Timer_IF_Init                  
20009cd7  Timer_IF_IntSetup              
20009d23  Timer_IF_InterruptClear        
20009d3b  Timer_IF_Start                 
20009d5b  Timer_IF_Stop                  
20009d6b  Timer_IF_DeInit                
20009d85  Timer_IF_ReLoad                
20009d9d  Timer_IF_GetCount              
20009dbd  PRCMCC3200MCUInit              
20009f35  __kernel_sin                   
2000a09d  __kernel_cos                   
2000a1fd  PinMuxConfig                   
2000a341  __aeabi_ddiv                   
2000a477  __aeabi_dmul                   
2000a573  __aeabi_fsub                   
2000a577  __aeabi_fadd                   
2000a66d  floor                          
2000a66d  floorl                         
2000a761  ldexp                          
2000a761  ldexpl                         
2000a761  scalbn                         
2000a761  scalbnl                        
2000a831  IntDisable                     
2000a8d9  IntEnable                      
2000a981  SPIConfigSetExpClk             
2000aa21  __aeabi_memcpy                 
2000aa21  __aeabi_memcpy4                
2000aa21  __aeabi_memcpy8                
2000aa21  memcpy                         
2000aabd  PRCMPeripheralClockGet         
2000ab51  PinConfigSet                   
2000abd9  vsnprintf                      
2000ac61  __aeabi_cdcmpeq                
2000ac61  __aeabi_cdcmple                
2000ace7  __aeabi_cdrcmple               
2000ad6d  GPIOIntTypeSet                 
2000adef  __aeabi_fmul                   
2000ae69  __aeabi_memclr                 
2000ae69  __aeabi_memclr4                
2000ae69  __aeabi_memclr8                
2000ae6b  __aeabi_memset                 
2000ae6b  __aeabi_memset4                
2000ae6b  __aeabi_memset8                
2000ae71  memset                         
2000aee3  UARTConfigSetExpClk            
2000af59  TimerIntRegister               
2000afc9  __TI_auto_init                 
2000b039  TimerIntUnregister             
2000b0a1  __TI_decompress_lzss           
2000b109  frexp                          
2000b109  frexpl                         
2000b165  PRCMPeripheralReset            
2000b1bd  IntPrioritySet                 
2000b211  C$$EXIT                        
2000b215  abort                          
2000b21d  exit                           
2000b265  ltoa                           
2000b2b9  atoi                           
2000b305  copy_in                        
2000b399  __aeabi_d2iz                   
2000b3e1  TimerConfigure                 
2000b425  PinModeSet                     
2000b465  _c_int00                       
2000b4a5  PRCMPeripheralClkEnable        
2000b4e1  __aeabi_f2d                    
2000b519  __aeabi_f2iz                   
2000b551  __aeabi_i2f                    
2000b589  GPIODirModeSet                 
2000b5bf  __aeabi_f2uiz                  
2000b5f3  PinTypeGPIO                    
2000b625  UARTDisable                    
2000b655  __aeabi_i2d                    
2000b685  PRCMSysResetCauseGet           
2000b6b1  TimerLoadSet                   
2000b6db  TimerPrescaleSet               
2000b705  PRCMPeripheralClkDisable       
2000b72d  IntUnregister                  
2000b751  UARTEnable                     
2000b775  memmove                        
2000b799  GPIOIntStatus                  
2000b7bb  SPIReset                       
2000b7dd  TimerValueSet                  
2000b7ff  GPIOPinWrite                   
2000b821  IntRegister                    
2000b841  SPIDataGet                     
2000b861  GPIOIntRegister                
2000b87f  SPIDataPut                     
2000b89d  TimerDisable                   
2000b8bb  TimerEnable                    
2000b8d9  TimerIntStatus                 
2000b8f7  UARTCharPut                    
2000b915  TimerValueGet                  
2000b931  UARTCharGetNonBlocking         
2000b94d  memccpy                        
2000b969  GPIOIntDisable                 
2000b983  GPIOIntEnable                  
2000b99d  PinTypeSPI                     
2000b9b7  PinTypeUART                    
2000b9d1  SPIFIFOEnable                  
2000b9eb  GPIOPinRead                    
2000ba03  SPICSDisable                   
2000ba1b  SPICSEnable                    
2000ba33  SPIEnable                      
2000ba4b  TimerIntDisable                
2000ba63  TimerIntEnable                 
2000ba7b  UARTCharsAvail                 
2000ba95  _args_main                     
2000baad  PRCMHIBRegRead                 
2000bac3  PRCMHIBRegWrite                
2000bad9  strchr                         
2000baef  CPUcpsie                       
2000bb03  GPIOIntClear                   
2000bb19  IntVTableBaseSet               
2000bb2d  _register_unlock               
2000bb33  _register_lock                 
2000bb3b  _nop                           
2000bb41  strlen                         
2000bb55  TimerIntClear                  
2000bb67  __TI_decompress_none           
2000bb75  ResetISR                       
2000bb83  __TI_zero_init                 
2000bb8f  IntMasterEnable                
2000bb99  copysign                       
2000bb99  copysignl                      
2000bba1  UtilsDelay                     
2000bba7  _system_pre_init               
2000c208  _ctypes_                       
2000c634  pedalSize                      
2000c638  pedalWidth                     
2000c640  __TI_static_base__             
2000c6c8  __TI_Handler_Table_Base        
2000c6d4  __TI_Handler_Table_Limit       
2000c6e0  __TI_CINIT_Base                
2000c6f0  __TI_CINIT_Limit               
20017000  _sys_memory                    
2001f000  buttons                        
2001f6b4  cursor_x                       
2001f6b8  cursor_y                       
2001f6bc  textsize                       
2001f6c0  textcolor                      
2001f6c4  textbgcolor                    
2001f6c8  wrap                           
2001f6cc  g_ulStatus                     
2001f6d0  g_ulPingPacketsRecv            
2001f6d4  g_ulGatewayIP                  
2001f6d8  g_Host                         
2001f6dc  isPlayerOne                    
2001f6f4  __TI_cleanup_ptr               
2001f6f8  __TI_dtors_ptr                 
2001f6fc  __TI_enable_exit_profile_output
2001f70c  g_uiLED1Port                   
2001f710  g_uiLED2Port                   
2001f714  g_uiLED3Port                   
2001f718  _lock                          
2001f71c  _unlock                        
2001f730  errno                          
2001f734  main_func_sp                   
2001f738  bitSequence                    
2001f7c4  timeInterval                   
2001f850  timeOfInterrupt                
2001f8dc  buffer                         
2001f91c  receiverBuffer                 
2001f95c  g_ucConnectionSSID             
2001f980  g_ucConnectionBSSID            
2001f98c  _readTime                      
2001f990  _time                          
2001f994  deleteFlag                     
2001f998  interruptCounter               
2001f99c  pulseCounter                   
2001f9a0  readIndex                      
2001f9a4  receiverLineNumber             
2001f9a8  time                           
2001f9ac  currRead                       
2001f9ad  g_ucLED1Pin                    
2001f9ae  g_ucLED2Pin                    
2001f9af  g_ucLED3Pin                    
2001f9b0  lastRead                       
20036000  __stack                        
20037000  __STACK_END                    
ffffffff  __TI_pprof_out_hndl            
ffffffff  __TI_prof_data_size            
ffffffff  __TI_prof_data_start           
ffffffff  __binit__                      
ffffffff  __c_args__                     
ffffffff  binit                          
UNDEFED   SHT$$INIT_ARRAY$$Base          
UNDEFED   SHT$$INIT_ARRAY$$Limit         

[288 symbols]
